; Function Attrs: mustprogress uwtable
define noundef zeroext i1 @_ZN5Ipopt19StandardScalingBase14have_c_scalingEv(ptr noundef nonnull readonly align 8 captures(none) dereferenceable(72) %0) unnamed_addr #7 align 2 personality ptr @__gxx_personality_v0 {
  %2 = getelementptr inbounds nuw i8, ptr %0, i64 40
  %3 = load ptr, ptr %2, align 8, !tbaa !107
  %.not = icmp eq ptr %3, null
  br i1 %.not, label %.critedge, label %4

4:                                                ; preds = %1
  %5 = getelementptr inbounds nuw i8, ptr %3, i64 24
  %6 = load ptr, ptr %5, align 8, !tbaa !20, !noalias !219
  %.not.i.i.i.i = icmp eq ptr %6, null
  br i1 %.not.i.i.i.i, label %.critedge, label %7

7:                                                ; preds = %4
  %8 = getelementptr inbounds nuw i8, ptr %6, i64 8
  %9 = load i32, ptr %8, align 8, !tbaa !3, !noalias !219
  %10 = icmp eq i32 %9, 0
  br i1 %10, label %11, label %.critedge

11:                                               ; preds = %7
  %12 = load ptr, ptr %6, align 8, !tbaa !8
  %13 = getelementptr inbounds nuw i8, ptr %12, i64 8
  %14 = load ptr, ptr %13, align 8
  tail call void %14(ptr noundef nonnull align 8 dereferenceable(205) %6) #17
  br label %.critedge

.critedge:                                        ; preds = %4, %11, %7, %1
  %15 = phi i1 [ false, %1 ], [ true, %7 ], [ true, %11 ], [ false, %4 ]
  ret i1 %15
}